target datalayout = "e-m:e-p270:32:32-p271:32:32-p272:64:64-i64:64-i128:128-f80:128-n8:16:32:64-S128"
target triple = "x86_64-pc-linux-gnu"

%struct._zend_output_globals = type { %struct._zend_stack, ptr, ptr, ptr, i32, i32 }
%struct._zend_stack = type { i32, i32, i32, ptr }
%struct._sapi_module_struct = type { ptr, ptr, ptr, ptr, ptr, ptr, ptr, ptr, ptr, ptr, ptr, ptr, ptr, ptr, ptr, ptr, ptr, ptr, ptr, ptr, ptr, ptr, ptr, ptr, i32, i32, ptr, ptr, ptr, ptr, ptr, ptr, i32, ptr, ptr, ptr }

@output_globals = dso_local global %struct._zend_output_globals zeroinitializer, align 8
@php_output_direct = internal global ptr @php_output_stderr, align 8
@sapi_module = external global %struct._sapi_module_struct, align 8

; Function Attrs: nounwind uwtable
define dso_local i64 @php_output_write_unbuffered(ptr noundef %0, i64 noundef %1) #0 {
  %3 = alloca i64, align 8
  %4 = alloca ptr, align 8
  %5 = alloca i64, align 8
  store ptr %0, ptr %4, align 8, !tbaa !15
  store i64 %1, ptr %5, align 8, !tbaa !17
  %6 = load i32, ptr getelementptr inbounds nuw (%struct._zend_output_globals, ptr @output_globals, i32 0, i32 5), align 4, !tbaa !21
  %7 = and i32 %6, 1048576
  %8 = icmp ne i32 %7, 0
  br i1 %8, label %9, label %14

9:                                                ; preds = %2
  %10 = load ptr, ptr getelementptr inbounds nuw (%struct._sapi_module_struct, ptr @sapi_module, i32 0, i32 6), align 8, !tbaa !58
  %11 = load ptr, ptr %4, align 8, !tbaa !15
  %12 = load i64, ptr %5, align 8, !tbaa !17
  %13 = call i64 %10(ptr noundef %11, i64 noundef %12)
  store i64 %13, ptr %3, align 8
  br label %19

14:                                               ; preds = %2
  %15 = load ptr, ptr @php_output_direct, align 8, !tbaa !4
  %16 = load ptr, ptr %4, align 8, !tbaa !15
  %17 = load i64, ptr %5, align 8, !tbaa !17
  %18 = call i64 %15(ptr noundef %16, i64 noundef %17)
  store i64 %18, ptr %3, align 8
  br label %19

19:                                               ; preds = %14, %9
  %20 = load i64, ptr %3, align 8
  ret i64 %20
}