; Function Attrs: nounwind uwtable
define dso_local i64 @php_output_write_unbuffered(ptr noundef %0, i64 noundef %1) local_unnamed_addr #0 {
  %3 = load i32, ptr getelementptr inbounds nuw (i8, ptr @output_globals, i64 52), align 4, !tbaa !11
  %4 = and i32 %3, 1048576
  %.not = icmp eq i32 %4, 0
  %5 = load ptr, ptr @php_output_direct, align 8
  %6 = load ptr, ptr getelementptr inbounds nuw (i8, ptr @sapi_module, i64 48), align 8
  %.sink = select i1 %.not, ptr %5, ptr %6
  %7 = tail call i64 %.sink(ptr noundef %0, i64 noundef %1) #22
  ret i64 %7
}